; Function Attrs: mustprogress nofree norecurse nosync nounwind willreturn memory(argmem: read) uwtable
define dso_local noundef double @_ZNK7msdfgen13LinearSegment6lengthEv(ptr nocapture noundef nonnull readonly align 8 dereferenceable(48) %this) local_unnamed_addr #7 align 2 {
entry:
  %p = getelementptr inbounds i8, ptr %this, i64 16
  %arrayidx = getelementptr inbounds i8, ptr %this, i64 32
  %agg.tmp.sroa.0.0.copyload = load double, ptr %arrayidx, align 8
  %agg.tmp.sroa.2.0.arrayidx.sroa_idx = getelementptr inbounds i8, ptr %this, i64 40
  %agg.tmp.sroa.2.0.copyload = load double, ptr %agg.tmp.sroa.2.0.arrayidx.sroa_idx, align 8
  %agg.tmp2.sroa.0.0.copyload = load double, ptr %p, align 8
  %agg.tmp2.sroa.2.0.arrayidx4.sroa_idx = getelementptr inbounds i8, ptr %this, i64 24
  %agg.tmp2.sroa.2.0.copyload = load double, ptr %agg.tmp2.sroa.2.0.arrayidx4.sroa_idx, align 8
  %sub.i = fsub double %agg.tmp.sroa.0.0.copyload, %agg.tmp2.sroa.0.0.copyload
  %sub3.i = fsub double %agg.tmp.sroa.2.0.copyload, %agg.tmp2.sroa.2.0.copyload
  %mul4.i = fmul double %sub3.i, %sub3.i
  %0 = tail call double @llvm.fmuladd.f64(double %sub.i, double %sub.i, double %mul4.i)
  %sqrt.i = tail call noundef double @llvm.sqrt.f64(double %0)
  ret double %sqrt.i
}